; Function Attrs: nounwind uwtable
define internal fastcc range(i32 -1, 1) i32 @read_char(i32 noundef %0, i64 noundef %1, ptr noundef nonnull %2) unnamed_addr #0 {
  %4 = alloca [1 x %struct.iovec], align 16
  %5 = alloca [1 x %struct.iovec], align 16
  call void @llvm.lifetime.start.p0(i64 16, ptr nonnull %4) #9
  call void @llvm.lifetime.start.p0(i64 16, ptr nonnull %5) #9
  %6 = getelementptr inbounds nuw i8, ptr %4, i64 8
  %7 = getelementptr inbounds nuw i8, ptr %5, i64 8
  br label %8

8:                                                ; preds = %18, %3
  %.0.i = phi i64 [ 0, %3 ], [ %19, %18 ]
  %9 = getelementptr i8, ptr %2, i64 %.0.i
  store ptr %9, ptr %4, align 16, !tbaa !29
  %10 = sub i64 1, %.0.i
  store i64 %10, ptr %6, align 8, !tbaa !32
  %11 = add i64 %.0.i, %1
  %12 = inttoptr i64 %11 to ptr
  store ptr %12, ptr %5, align 16, !tbaa !29
  store i64 %10, ptr %7, align 8, !tbaa !32
  %13 = call i64 @process_vm_readv(i32 noundef %0, ptr noundef nonnull %4, i64 noundef 1, ptr noundef nonnull %5, i64 noundef 1, i64 noundef 0) #9
  %14 = icmp slt i64 %13, 0
  br i1 %14, label %15, label %18

15:                                               ; preds = %8
  %16 = load ptr, ptr @PyExc_OSError, align 8, !tbaa !33
  %17 = call ptr @PyErr_SetFromErrno(ptr noundef %16) #9
  br label %read_memory.exit

18:                                               ; preds = %8
  %19 = add i64 %13, %.0.i
  %20 = load i64, ptr %6, align 8, !tbaa !32
  %.not.i = icmp eq i64 %13, %20
  br i1 %.not.i, label %read_memory.exit.loopexit, label %8, !llvm.loop !35

read_memory.exit.loopexit:                        ; preds = %18
  %21 = shl i64 %19, 32
  %22 = ashr i64 %21, 63
  %23 = trunc nsw i64 %22 to i32
  br label %read_memory.exit

read_memory.exit:                                 ; preds = %read_memory.exit.loopexit, %15
  %.015.i = phi i32 [ -1, %15 ], [ %23, %read_memory.exit.loopexit ]
  call void @llvm.lifetime.end.p0(i64 16, ptr nonnull %5) #9
  call void @llvm.lifetime.end.p0(i64 16, ptr nonnull %4) #9
  ret i32 %.015.i
}